target datalayout = "e-m:e-p270:32:32-p271:32:32-p272:64:64-i64:64-i128:128-f80:128-n8:16:32:64-S128"
target triple = "x86_64-pc-linux-gnu"

%struct.decNumber = type { i32, i32, i8, [1 x i16] }

@DECPOWERS = external constant [10 x i32], align 16

; Function Attrs: nounwind uwtable
define dso_local i32 @decNumberToInt32(ptr noundef %0, ptr noundef %1) #0 {
  %3 = alloca i32, align 4
  %4 = alloca ptr, align 8
  %5 = alloca ptr, align 8
  %6 = alloca i32, align 4
  %7 = alloca ptr, align 8
  %8 = alloca i32, align 4
  %9 = alloca i32, align 4
  %10 = alloca i32, align 4
  %11 = alloca i32, align 4
  store ptr %0, ptr %4, align 8, !tbaa !4
  store ptr %1, ptr %5, align 8, !tbaa !4
  %12 = load ptr, ptr %4, align 8, !tbaa !4
  %13 = getelementptr inbounds nuw %struct.decNumber, ptr %12, i32 0, i32 2
  %14 = load i8, ptr %13, align 4, !tbaa !10
  %15 = zext i8 %14 to i32
  %16 = and i32 %15, 112
  %17 = icmp ne i32 %16, 0
  br i1 %17, label %28, label %18

18:                                               ; preds = %2
  %19 = load ptr, ptr %4, align 8, !tbaa !4
  %20 = getelementptr inbounds nuw %struct.decNumber, ptr %19, i32 0, i32 0
  %21 = load i32, ptr %20, align 4, !tbaa !18
  %22 = icmp sgt i32 %21, 10
  br i1 %22, label %28, label %23

23:                                               ; preds = %18
  %24 = load ptr, ptr %4, align 8, !tbaa !4
  %25 = getelementptr inbounds nuw %struct.decNumber, ptr %24, i32 0, i32 1
  %26 = load i32, ptr %25, align 4, !tbaa !19
  %27 = icmp ne i32 %26, 0
  br i1 %27, label %28, label %29

28:                                               ; preds = %23, %18, %2
  br label %113

29:                                               ; preds = %23
  call void @llvm.lifetime.start.p0(i64 4, ptr %6) #7
  call void @llvm.lifetime.start.p0(i64 8, ptr %7) #7
  call void @llvm.lifetime.start.p0(i64 4, ptr %8) #7
  store i32 0, ptr %8, align 4, !tbaa !8
  call void @llvm.lifetime.start.p0(i64 4, ptr %9) #7
  %30 = load ptr, ptr %4, align 8, !tbaa !4
  %31 = getelementptr inbounds nuw %struct.decNumber, ptr %30, i32 0, i32 3
  %32 = getelementptr inbounds [1 x i16], ptr %31, i64 0, i64 0
  store ptr %32, ptr %7, align 8, !tbaa !12
  %33 = load ptr, ptr %7, align 8, !tbaa !12
  %34 = load i16, ptr %33, align 2, !tbaa !14
  %35 = zext i16 %34 to i32
  store i32 %35, ptr %9, align 4, !tbaa !8
  %36 = load i32, ptr %9, align 4, !tbaa !8
  %37 = udiv i32 %36, 10
  store i32 %37, ptr %8, align 4, !tbaa !8
  %38 = load i32, ptr %9, align 4, !tbaa !8
  %39 = urem i32 %38, 10
  store i32 %39, ptr %9, align 4, !tbaa !8
  %40 = load ptr, ptr %7, align 8, !tbaa !12
  %41 = getelementptr inbounds nuw i16, ptr %40, i32 1
  store ptr %41, ptr %7, align 8, !tbaa !12
  store i32 3, ptr %6, align 4, !tbaa !8
  br label %42

42:                                               ; preds = %60, %29
  %43 = load i32, ptr %6, align 4, !tbaa !8
  %44 = load ptr, ptr %4, align 8, !tbaa !4
  %45 = getelementptr inbounds nuw %struct.decNumber, ptr %44, i32 0, i32 0
  %46 = load i32, ptr %45, align 4, !tbaa !18
  %47 = icmp slt i32 %43, %46
  br i1 %47, label %48, label %65

48:                                               ; preds = %42
  %49 = load ptr, ptr %7, align 8, !tbaa !12
  %50 = load i16, ptr %49, align 2, !tbaa !14
  %51 = zext i16 %50 to i32
  %52 = load i32, ptr %6, align 4, !tbaa !8
  %53 = sub nsw i32 %52, 1
  %54 = sext i32 %53 to i64
  %55 = getelementptr inbounds [10 x i32], ptr @DECPOWERS, i64 0, i64 %54
  %56 = load i32, ptr %55, align 4, !tbaa !8
  %57 = mul i32 %51, %56
  %58 = load i32, ptr %8, align 4, !tbaa !8
  %59 = add i32 %58, %57
  store i32 %59, ptr %8, align 4, !tbaa !8
  br label %60

60:                                               ; preds = %48
  %61 = load ptr, ptr %7, align 8, !tbaa !12
  %62 = getelementptr inbounds nuw i16, ptr %61, i32 1
  store ptr %62, ptr %7, align 8, !tbaa !12
  %63 = load i32, ptr %6, align 4, !tbaa !8
  %64 = add nsw i32 %63, 3
  store i32 %64, ptr %6, align 4, !tbaa !8
  br label %42, !llvm.loop !21

65:                                               ; preds = %42
  %66 = load i32, ptr %8, align 4, !tbaa !8
  %67 = icmp ugt i32 %66, 214748364
  br i1 %67, label %74, label %68

68:                                               ; preds = %65
  %69 = load i32, ptr %8, align 4, !tbaa !8
  %70 = icmp eq i32 %69, 214748364
  br i1 %70, label %71, label %89

71:                                               ; preds = %68
  %72 = load i32, ptr %9, align 4, !tbaa !8
  %73 = icmp ugt i32 %72, 7
  br i1 %73, label %74, label %89

74:                                               ; preds = %71, %65
  %75 = load ptr, ptr %4, align 8, !tbaa !4
  %76 = getelementptr inbounds nuw %struct.decNumber, ptr %75, i32 0, i32 2
  %77 = load i8, ptr %76, align 4, !tbaa !10
  %78 = zext i8 %77 to i32
  %79 = and i32 %78, 128
  %80 = icmp ne i32 %79, 0
  br i1 %80, label %81, label %88

81:                                               ; preds = %74
  %82 = load i32, ptr %8, align 4, !tbaa !8
  %83 = icmp eq i32 %82, 214748364
  br i1 %83, label %84, label %88

84:                                               ; preds = %81
  %85 = load i32, ptr %9, align 4, !tbaa !8
  %86 = icmp eq i32 %85, 8
  br i1 %86, label %87, label %88

87:                                               ; preds = %84
  store i32 -2147483648, ptr %3, align 4
  store i32 1, ptr %10, align 4
  br label %110

88:                                               ; preds = %84, %81, %74
  br label %109

89:                                               ; preds = %71, %68
  call void @llvm.lifetime.start.p0(i64 4, ptr %11) #7
  %90 = load i32, ptr %8, align 4, !tbaa !8
  %91 = shl i32 %90, 1
  %92 = load i32, ptr %8, align 4, !tbaa !8
  %93 = shl i32 %92, 3
  %94 = add i32 %91, %93
  %95 = load i32, ptr %9, align 4, !tbaa !8
  %96 = add i32 %94, %95
  store i32 %96, ptr %11, align 4, !tbaa !8
  %97 = load ptr, ptr %4, align 8, !tbaa !4
  %98 = getelementptr inbounds nuw %struct.decNumber, ptr %97, i32 0, i32 2
  %99 = load i8, ptr %98, align 4, !tbaa !10
  %100 = zext i8 %99 to i32
  %101 = and i32 %100, 128
  %102 = icmp ne i32 %101, 0
  br i1 %102, label %103, label %106

103:                                              ; preds = %89
  %104 = load i32, ptr %11, align 4, !tbaa !8
  %105 = sub nsw i32 0, %104
  store i32 %105, ptr %3, align 4
  store i32 1, ptr %10, align 4
  br label %108

106:                                              ; preds = %89
  %107 = load i32, ptr %11, align 4, !tbaa !8
  store i32 %107, ptr %3, align 4
  store i32 1, ptr %10, align 4
  br label %108

108:                                              ; preds = %106, %103
  call void @llvm.lifetime.end.p0(i64 4, ptr %11) #7
  br label %110

109:                                              ; preds = %88
  store i32 0, ptr %10, align 4
  br label %110

110:                                              ; preds = %109, %108, %87
  call void @llvm.lifetime.end.p0(i64 4, ptr %9) #7
  call void @llvm.lifetime.end.p0(i64 4, ptr %8) #7
  call void @llvm.lifetime.end.p0(i64 8, ptr %7) #7
  call void @llvm.lifetime.end.p0(i64 4, ptr %6) #7
  %111 = load i32, ptr %10, align 4
  switch i32 %111, label %118 [
    i32 0, label %112
    i32 1, label %116
  ]

112:                                              ; preds = %110
  br label %113

113:                                              ; preds = %112, %28
  %114 = load ptr, ptr %5, align 8, !tbaa !4
  %115 = call ptr @decContextSetStatus(ptr noundef %114, i32 noundef 128)
  store i32 0, ptr %3, align 4
  br label %116

116:                                              ; preds = %113, %110
  %117 = load i32, ptr %3, align 4
  ret i32 %117

118:                                              ; preds = %110
  unreachable
}