; Function Attrs: nounwind uwtable
define dso_local i32 @decNumberToInt32(ptr noundef readonly captures(none) %0, ptr noundef %1) local_unnamed_addr #4 {
  %3 = getelementptr inbounds nuw i8, ptr %0, i64 8
  %4 = load i8, ptr %3, align 4, !tbaa !4
  %5 = and i8 %4, 112
  %.not = icmp eq i8 %5, 0
  br i1 %.not, label %6, label %.thread

6:                                                ; preds = %2
  %7 = load i32, ptr %0, align 4, !tbaa !10
  %8 = icmp sgt i32 %7, 10
  br i1 %8, label %.thread, label %9

9:                                                ; preds = %6
  %10 = getelementptr inbounds nuw i8, ptr %0, i64 4
  %11 = load i32, ptr %10, align 4, !tbaa !9
  %.not39 = icmp eq i32 %11, 0
  br i1 %.not39, label %12, label %.thread

12:                                               ; preds = %9
  %13 = getelementptr inbounds nuw i8, ptr %0, i64 10
  %14 = load i16, ptr %13, align 2, !tbaa !11
  %15 = udiv i16 %14, 10
  %.zext = zext nneg i16 %15 to i32
  %16 = urem i16 %14, 10
  %.zext52 = zext nneg i16 %16 to i32
  %17 = icmp sgt i32 %7, 3
  br i1 %17, label %.lr.ph.preheader, label %.thread45

.lr.ph.preheader:                                 ; preds = %12
  %18 = getelementptr inbounds nuw i8, ptr %0, i64 12
  %19 = zext nneg i32 %7 to i64
  br label %.lr.ph

.lr.ph:                                           ; preds = %.lr.ph.preheader, %.lr.ph
  %indvars.iv = phi i64 [ 3, %.lr.ph.preheader ], [ %indvars.iv.next, %.lr.ph ]
  %.03657 = phi i32 [ %.zext, %.lr.ph.preheader ], [ %26, %.lr.ph ]
  %.03756 = phi ptr [ %18, %.lr.ph.preheader ], [ %27, %.lr.ph ]
  %20 = load i16, ptr %.03756, align 2, !tbaa !11
  %21 = zext i16 %20 to i32
  %22 = add nsw i64 %indvars.iv, -1
  %23 = getelementptr inbounds [10 x i32], ptr @DECPOWERS, i64 0, i64 %22
  %24 = load i32, ptr %23, align 4, !tbaa !16
  %25 = mul i32 %24, %21
  %26 = add i32 %25, %.03657
  %27 = getelementptr inbounds nuw i8, ptr %.03756, i64 2
  %indvars.iv.next = add nuw nsw i64 %indvars.iv, 3
  %28 = icmp samesign ult i64 %indvars.iv.next, %19
  br i1 %28, label %.lr.ph, label %._crit_edge, !llvm.loop !17

._crit_edge:                                      ; preds = %.lr.ph
  %29 = icmp ugt i32 %26, 214748364
  br i1 %29, label %.thread, label %30

30:                                               ; preds = %._crit_edge
  %31 = icmp eq i32 %26, 214748364
  %32 = icmp samesign ugt i16 %16, 7
  %or.cond = select i1 %31, i1 %32, i1 false
  br i1 %or.cond, label %33, label %.thread45

33:                                               ; preds = %30
  %34 = icmp sgt i8 %4, -1
  %35 = icmp ne i16 %16, 8
  %or.cond53 = select i1 %34, i1 true, i1 %35
  br i1 %or.cond53, label %.thread, label %40

.thread45:                                        ; preds = %12, %30
  %.036.lcssa6064 = phi i32 [ %26, %30 ], [ %.zext, %12 ]
  %36 = mul nuw nsw i32 %.036.lcssa6064, 10
  %37 = add nuw i32 %36, %.zext52
  %38 = sub nsw i32 0, %37
  %.not4054 = icmp slt i8 %4, 0
  %.1 = select i1 %.not4054, i32 %38, i32 %37
  br label %40

.thread:                                          ; preds = %._crit_edge, %33, %2, %6, %9
  %39 = tail call ptr @decContextSetStatus(ptr noundef %1, i32 noundef 128) #18
  br label %40

40:                                               ; preds = %33, %.thread45, %.thread
  %.2 = phi i32 [ 0, %.thread ], [ %.1, %.thread45 ], [ -2147483648, %33 ]
  ret i32 %.2
}